target datalayout = "e-m:e-p270:32:32-p271:32:32-p272:64:64-i64:64-i128:128-f80:128-n8:16:32:64-S128"
target triple = "x86_64-pc-linux-gnu"

; Function Attrs: nounwind uwtable
define internal void @pred16x16_top_dc_8_c(ptr noundef %0, i64 noundef %1) #1 {
  %3 = alloca ptr, align 8
  %4 = alloca i64, align 8
  %5 = alloca i32, align 4
  %6 = alloca i32, align 4
  %7 = alloca ptr, align 8
  %8 = alloca i32, align 4
  store ptr %0, ptr %3, align 8, !tbaa !12
  store i64 %1, ptr %4, align 8, !tbaa !14
  call void @llvm.lifetime.start.p0(i64 4, ptr %5) #9
  call void @llvm.lifetime.start.p0(i64 4, ptr %6) #9
  store i32 0, ptr %6, align 4, !tbaa !9
  call void @llvm.lifetime.start.p0(i64 8, ptr %7) #9
  %9 = load ptr, ptr %3, align 8, !tbaa !12
  store ptr %9, ptr %7, align 8, !tbaa !12
  call void @llvm.lifetime.start.p0(i64 4, ptr %8) #9
  %10 = load i64, ptr %4, align 8, !tbaa !14
  %11 = ashr i64 %10, 0
  store i64 %11, ptr %4, align 8, !tbaa !14
  store i32 0, ptr %5, align 4, !tbaa !9
  br label %12

12:                                               ; preds = %26, %2
  %13 = load i32, ptr %5, align 4, !tbaa !9
  %14 = icmp slt i32 %13, 16
  br i1 %14, label %15, label %29

15:                                               ; preds = %12
  %16 = load ptr, ptr %7, align 8, !tbaa !12
  %17 = load i32, ptr %5, align 4, !tbaa !9
  %18 = sext i32 %17 to i64
  %19 = load i64, ptr %4, align 8, !tbaa !14
  %20 = sub nsw i64 %18, %19
  %21 = getelementptr inbounds i8, ptr %16, i64 %20
  %22 = load i8, ptr %21, align 1, !tbaa !18
  %23 = zext i8 %22 to i32
  %24 = load i32, ptr %6, align 4, !tbaa !9
  %25 = add nsw i32 %24, %23
  store i32 %25, ptr %6, align 4, !tbaa !9
  br label %26

26:                                               ; preds = %15
  %27 = load i32, ptr %5, align 4, !tbaa !9
  %28 = add nsw i32 %27, 1
  store i32 %28, ptr %5, align 4, !tbaa !9
  br label %12, !llvm.loop !289

29:                                               ; preds = %12
  %30 = load i32, ptr %6, align 4, !tbaa !9
  %31 = add nsw i32 %30, 8
  %32 = ashr i32 %31, 4
  %33 = mul i32 %32, 16843009
  store i32 %33, ptr %8, align 4, !tbaa !9
  store i32 0, ptr %5, align 4, !tbaa !9
  br label %34

34:                                               ; preds = %53, %29
  %35 = load i32, ptr %5, align 4, !tbaa !9
  %36 = icmp slt i32 %35, 16
  br i1 %36, label %37, label %56

37:                                               ; preds = %34
  %38 = load i32, ptr %8, align 4, !tbaa !9
  %39 = load ptr, ptr %7, align 8, !tbaa !12
  %40 = getelementptr inbounds i8, ptr %39, i64 0
  store i32 %38, ptr %40, align 4, !tbaa !18
  %41 = load i32, ptr %8, align 4, !tbaa !9
  %42 = load ptr, ptr %7, align 8, !tbaa !12
  %43 = getelementptr inbounds i8, ptr %42, i64 4
  store i32 %41, ptr %43, align 4, !tbaa !18
  %44 = load i32, ptr %8, align 4, !tbaa !9
  %45 = load ptr, ptr %7, align 8, !tbaa !12
  %46 = getelementptr inbounds i8, ptr %45, i64 8
  store i32 %44, ptr %46, align 4, !tbaa !18
  %47 = load i32, ptr %8, align 4, !tbaa !9
  %48 = load ptr, ptr %7, align 8, !tbaa !12
  %49 = getelementptr inbounds i8, ptr %48, i64 12
  store i32 %47, ptr %49, align 4, !tbaa !18
  %50 = load i64, ptr %4, align 8, !tbaa !14
  %51 = load ptr, ptr %7, align 8, !tbaa !12
  %52 = getelementptr inbounds i8, ptr %51, i64 %50
  store ptr %52, ptr %7, align 8, !tbaa !12
  br label %53

53:                                               ; preds = %37
  %54 = load i32, ptr %5, align 4, !tbaa !9
  %55 = add nsw i32 %54, 1
  store i32 %55, ptr %5, align 4, !tbaa !9
  br label %34, !llvm.loop !290

56:                                               ; preds = %34
  call void @llvm.lifetime.end.p0(i64 4, ptr %8) #9
  call void @llvm.lifetime.end.p0(i64 8, ptr %7) #9
  call void @llvm.lifetime.end.p0(i64 4, ptr %6) #9
  call void @llvm.lifetime.end.p0(i64 4, ptr %5) #9
  ret void
}