; Function Attrs: nofree norecurse nosync nounwind memory(argmem: readwrite) uwtable
define internal void @pred16x16_top_dc_8_c(ptr noundef captures(none) %0, i64 noundef %1) #3 {
  br label %3

3:                                                ; preds = %2, %3
  %indvars.iv = phi i64 [ 0, %2 ], [ %indvars.iv.next, %3 ]
  %.02023 = phi i32 [ 0, %2 ], [ %8, %3 ]
  %4 = sub nsw i64 %indvars.iv, %1
  %5 = getelementptr inbounds i8, ptr %0, i64 %4
  %6 = load i8, ptr %5, align 1, !tbaa !8
  %7 = zext i8 %6 to i32
  %8 = add nuw nsw i32 %.02023, %7
  %indvars.iv.next = add nuw nsw i64 %indvars.iv, 1
  %exitcond.not = icmp eq i64 %indvars.iv.next, 16
  br i1 %exitcond.not, label %9, label %3, !llvm.loop !291

9:                                                ; preds = %3
  %10 = add nuw nsw i32 %8, 8
  %11 = lshr i32 %10, 4
  %12 = mul i32 %11, 16843009
  br label %13

13:                                               ; preds = %9, %13
  %.025 = phi ptr [ %0, %9 ], [ %17, %13 ]
  %.124 = phi i32 [ 0, %9 ], [ %18, %13 ]
  store i32 %12, ptr %.025, align 4, !tbaa !8
  %14 = getelementptr inbounds nuw i8, ptr %.025, i64 4
  store i32 %12, ptr %14, align 4, !tbaa !8
  %15 = getelementptr inbounds nuw i8, ptr %.025, i64 8
  store i32 %12, ptr %15, align 4, !tbaa !8
  %16 = getelementptr inbounds nuw i8, ptr %.025, i64 12
  store i32 %12, ptr %16, align 4, !tbaa !8
  %17 = getelementptr inbounds i8, ptr %.025, i64 %1
  %18 = add nuw nsw i32 %.124, 1
  %exitcond27.not = icmp eq i32 %18, 16
  br i1 %exitcond27.not, label %19, label %13, !llvm.loop !292

19:                                               ; preds = %13
  ret void
}